target datalayout = "e-m:e-p270:32:32-p271:32:32-p272:64:64-i64:64-i128:128-f80:128-n8:16:32:64-S128"
target triple = "x86_64-pc-linux-gnu"

%"class.llvm::StringRef" = type { ptr, i64 }
%"class.std::__cxx11::basic_string" = type { %"struct.std::__cxx11::basic_string<char>::_Alloc_hider", i64, %union.anon }
%"struct.std::__cxx11::basic_string<char>::_Alloc_hider" = type { ptr }
%union.anon = type { i64, [8 x i8] }
%"class.llvm::IntrusiveRefCntPtr" = type { ptr }
%"class.llvm::TreePatternNode" = type { %"class.llvm::RefCountedBase", %"class.std::vector.127", %"class.std::vector.132", %"class.llvm::PointerUnion", %"class.std::__cxx11::basic_string", %"class.std::vector.139", %"class.std::vector.144", ptr, %"class.std::vector.149", ptr }
%"class.llvm::RefCountedBase" = type { i32 }
%"class.std::vector.127" = type { %"struct.std::_Vector_base.128" }
%"struct.std::_Vector_base.128" = type { %"struct.std::_Vector_base<llvm::TypeSetByHwMode, std::allocator<llvm::TypeSetByHwMode>>::_Vector_impl" }
%"struct.std::_Vector_base<llvm::TypeSetByHwMode, std::allocator<llvm::TypeSetByHwMode>>::_Vector_impl" = type { %"struct.std::_Vector_base<llvm::TypeSetByHwMode, std::allocator<llvm::TypeSetByHwMode>>::_Vector_impl_data" }
%"struct.std::_Vector_base<llvm::TypeSetByHwMode, std::allocator<llvm::TypeSetByHwMode>>::_Vector_impl_data" = type { ptr, ptr, ptr }
%"class.std::vector.132" = type { %"struct.std::_Vector_base.133" }
%"struct.std::_Vector_base.133" = type { %"struct.std::_Vector_base<unsigned int, std::allocator<unsigned int>>::_Vector_impl" }
%"struct.std::_Vector_base<unsigned int, std::allocator<unsigned int>>::_Vector_impl" = type { %"struct.std::_Vector_base<unsigned int, std::allocator<unsigned int>>::_Vector_impl_data" }
%"struct.std::_Vector_base<unsigned int, std::allocator<unsigned int>>::_Vector_impl_data" = type { ptr, ptr, ptr }
%"class.llvm::PointerUnion" = type { %"class.llvm::pointer_union_detail::PointerUnionMembers" }
%"class.llvm::pointer_union_detail::PointerUnionMembers" = type { %"class.llvm::pointer_union_detail::PointerUnionMembers.137" }
%"class.llvm::pointer_union_detail::PointerUnionMembers.137" = type { %"class.llvm::pointer_union_detail::PointerUnionMembers.138" }
%"class.llvm::pointer_union_detail::PointerUnionMembers.138" = type { %"class.llvm::PointerIntPair" }
%"class.llvm::PointerIntPair" = type { %"struct.llvm::detail::PunnedPointer" }
%"struct.llvm::detail::PunnedPointer" = type { [8 x i8] }
%"class.std::vector.139" = type { %"struct.std::_Vector_base.140" }
%"struct.std::_Vector_base.140" = type { %"struct.std::_Vector_base<llvm::ScopedName, std::allocator<llvm::ScopedName>>::_Vector_impl" }
%"struct.std::_Vector_base<llvm::ScopedName, std::allocator<llvm::ScopedName>>::_Vector_impl" = type { %"struct.std::_Vector_base<llvm::ScopedName, std::allocator<llvm::ScopedName>>::_Vector_impl_data" }
%"struct.std::_Vector_base<llvm::ScopedName, std::allocator<llvm::ScopedName>>::_Vector_impl_data" = type { ptr, ptr, ptr }
%"class.std::vector.144" = type { %"struct.std::_Vector_base.145" }
%"struct.std::_Vector_base.145" = type { %"struct.std::_Vector_base<llvm::TreePredicateCall, std::allocator<llvm::TreePredicateCall>>::_Vector_impl" }
%"struct.std::_Vector_base<llvm::TreePredicateCall, std::allocator<llvm::TreePredicateCall>>::_Vector_impl" = type { %"struct.std::_Vector_base<llvm::TreePredicateCall, std::allocator<llvm::TreePredicateCall>>::_Vector_impl_data" }
%"struct.std::_Vector_base<llvm::TreePredicateCall, std::allocator<llvm::TreePredicateCall>>::_Vector_impl_data" = type { ptr, ptr, ptr }
%"class.std::vector.149" = type { %"struct.std::_Vector_base.150" }
%"struct.std::_Vector_base.150" = type { %"struct.std::_Vector_base<llvm::IntrusiveRefCntPtr<llvm::TreePatternNode>, std::allocator<llvm::IntrusiveRefCntPtr<llvm::TreePatternNode>>>::_Vector_impl" }
%"struct.std::_Vector_base<llvm::IntrusiveRefCntPtr<llvm::TreePatternNode>, std::allocator<llvm::IntrusiveRefCntPtr<llvm::TreePatternNode>>>::_Vector_impl" = type { %"struct.std::_Vector_base<llvm::IntrusiveRefCntPtr<llvm::TreePatternNode>, std::allocator<llvm::IntrusiveRefCntPtr<llvm::TreePatternNode>>>::_Vector_impl_data" }
%"struct.std::_Vector_base<llvm::IntrusiveRefCntPtr<llvm::TreePatternNode>, std::allocator<llvm::IntrusiveRefCntPtr<llvm::TreePatternNode>>>::_Vector_impl_data" = type { ptr, ptr, ptr }

@.str.14 = private unnamed_addr constant [12 x i8] c"Instruction\00", align 1
@.str.15 = private unnamed_addr constant [9 x i8] c"CodeSize\00", align 1

; Function Attrs: mustprogress nounwind uwtable
define linkonce_odr hidden noundef ptr @_ZN4llvm20pointer_union_detail22PointerUnionUIntTraitsIJPNS_6RecordEPNS_4InitEEE18getFromVoidPointerEPv(ptr noundef %0) #1 comdat align 2 {
  %2 = alloca ptr, align 8
  store ptr %0, ptr %2, align 8
  %3 = load ptr, ptr %2, align 8
  ret ptr %3
}

; Function Attrs: mustprogress nounwind uwtable
define linkonce_odr hidden noundef i64 @_ZNK4llvm6detail13PunnedPointerIPvE5asIntEv(ptr noundef nonnull align 8 dereferenceable(8) %0) #1 comdat align 2 {
  %2 = alloca ptr, align 8
  %3 = alloca i64, align 8
  store ptr %0, ptr %2, align 8
  %4 = load ptr, ptr %2, align 8
  store i64 0, ptr %3, align 8
  %5 = getelementptr inbounds nuw %"struct.llvm::detail::PunnedPointer", ptr %4, i32 0, i32 0
  %6 = getelementptr inbounds [8 x i8], ptr %5, i64 0, i64 0
  call void @llvm.memcpy.p0.p0.i64(ptr align 8 %3, ptr align 8 %6, i64 8, i1 false)
  %7 = load i64, ptr %3, align 8
  ret i64 %7
}

; Function Attrs: mustprogress nounwind uwtable
define linkonce_odr hidden noundef ptr @_ZN4llvm18PointerIntPairInfoIPvLj1ENS_20pointer_union_detail22PointerUnionUIntTraitsIJPNS_6RecordEPNS_4InitEEEEE10getPointerEl(i64 noundef %0) #1 comdat align 2 {
  %2 = alloca i64, align 8
  store i64 %0, ptr %2, align 8
  %3 = load i64, ptr %2, align 8
  %4 = and i64 %3, -8
  %5 = inttoptr i64 %4 to ptr
  %6 = call noundef ptr @_ZN4llvm20pointer_union_detail22PointerUnionUIntTraitsIJPNS_6RecordEPNS_4InitEEE18getFromVoidPointerEPv(ptr noundef %5)
  ret ptr %6
}

; Function Attrs: mustprogress nounwind uwtable
define linkonce_odr hidden noundef i64 @_ZN4llvm18PointerIntPairInfoIPvLj1ENS_20pointer_union_detail22PointerUnionUIntTraitsIJPNS_6RecordEPNS_4InitEEEEE6getIntEl(i64 noundef %0) #1 comdat align 2 {
  %2 = alloca i64, align 8
  store i64 %0, ptr %2, align 8
  %3 = load i64, ptr %2, align 8
  %4 = ashr i64 %3, 2
  %5 = and i64 %4, 1
  ret i64 %5
}

; Function Attrs: mustprogress nounwind uwtable
define linkonce_odr hidden noundef i64 @_ZNK4llvm6detail13PunnedPointerIPvEcvlEv(ptr noundef nonnull align 8 dereferenceable(8) %0) #1 comdat align 2 {
  %2 = alloca ptr, align 8
  store ptr %0, ptr %2, align 8
  %3 = load ptr, ptr %2, align 8
  %4 = call noundef i64 @_ZNK4llvm6detail13PunnedPointerIPvE5asIntEv(ptr noundef nonnull align 8 dereferenceable(8) %3)
  ret i64 %4
}

; Function Attrs: mustprogress nounwind uwtable
define linkonce_odr hidden noundef ptr @_ZN4llvm21PointerLikeTypeTraitsIPNS_6RecordEE18getFromVoidPointerEPv(ptr noundef %0) #1 comdat align 2 {
  %2 = alloca ptr, align 8
  store ptr %0, ptr %2, align 8
  %3 = load ptr, ptr %2, align 8
  ret ptr %3
}

; Function Attrs: mustprogress nounwind uwtable
define linkonce_odr hidden noundef ptr @_ZNK4llvm14PointerIntPairIPvLj1EiNS_20pointer_union_detail22PointerUnionUIntTraitsIJPNS_6RecordEPNS_4InitEEEENS_18PointerIntPairInfoIS1_Lj1ES8_EEE10getPointerEv(ptr noundef nonnull align 8 dereferenceable(8) %0) #1 comdat align 2 {
  %2 = alloca ptr, align 8
  store ptr %0, ptr %2, align 8
  %3 = load ptr, ptr %2, align 8
  %4 = getelementptr inbounds nuw %"class.llvm::PointerIntPair", ptr %3, i32 0, i32 0
  %5 = call noundef i64 @_ZNK4llvm6detail13PunnedPointerIPvEcvlEv(ptr noundef nonnull align 8 dereferenceable(8) %4)
  %6 = call noundef ptr @_ZN4llvm18PointerIntPairInfoIPvLj1ENS_20pointer_union_detail22PointerUnionUIntTraitsIJPNS_6RecordEPNS_4InitEEEEE10getPointerEl(i64 noundef %5)
  ret ptr %6
}

; Function Attrs: mustprogress nounwind uwtable
define linkonce_odr hidden noundef i32 @_ZNK4llvm14PointerIntPairIPvLj1EiNS_20pointer_union_detail22PointerUnionUIntTraitsIJPNS_6RecordEPNS_4InitEEEENS_18PointerIntPairInfoIS1_Lj1ES8_EEE6getIntEv(ptr noundef nonnull align 8 dereferenceable(8) %0) #1 comdat align 2 {
  %2 = alloca ptr, align 8
  store ptr %0, ptr %2, align 8
  %3 = load ptr, ptr %2, align 8
  %4 = getelementptr inbounds nuw %"class.llvm::PointerIntPair", ptr %3, i32 0, i32 0
  %5 = call noundef i64 @_ZNK4llvm6detail13PunnedPointerIPvEcvlEv(ptr noundef nonnull align 8 dereferenceable(8) %4)
  %6 = call noundef i64 @_ZN4llvm18PointerIntPairInfoIPvLj1ENS_20pointer_union_detail22PointerUnionUIntTraitsIJPNS_6RecordEPNS_4InitEEEEE6getIntEl(i64 noundef %5)
  %7 = trunc i64 %6 to i32
  ret i32 %7
}

; Function Attrs: mustprogress nounwind uwtable
define linkonce_odr hidden noundef ptr @_ZN4llvm24CastInfoPointerUnionImplIJPNS_6RecordEPNS_4InitEEE6doCastIS2_EET_RNS_12PointerUnionIJS2_S4_EEE(ptr noundef nonnull align 8 dereferenceable(8) %0) #1 comdat align 2 {
  %2 = alloca ptr, align 8
  store ptr %0, ptr %2, align 8
  %3 = load ptr, ptr %2, align 8
  %4 = getelementptr inbounds nuw %"class.llvm::pointer_union_detail::PointerUnionMembers.138", ptr %3, i32 0, i32 0
  %5 = call noundef ptr @_ZNK4llvm14PointerIntPairIPvLj1EiNS_20pointer_union_detail22PointerUnionUIntTraitsIJPNS_6RecordEPNS_4InitEEEENS_18PointerIntPairInfoIS1_Lj1ES8_EEE10getPointerEv(ptr noundef nonnull align 8 dereferenceable(8) %4)
  %6 = call noundef ptr @_ZN4llvm21PointerLikeTypeTraitsIPNS_6RecordEE18getFromVoidPointerEPv(ptr noundef %5)
  ret ptr %6
}

; Function Attrs: mustprogress nounwind uwtable
define linkonce_odr hidden noundef zeroext i1 @_ZN4llvm24CastInfoPointerUnionImplIJPNS_6RecordEPNS_4InitEEE10isPossibleIS4_EEbRNS_12PointerUnionIJS2_S4_EEE(ptr noundef nonnull align 8 dereferenceable(8) %0) #1 comdat align 2 {
  %2 = alloca ptr, align 8
  store ptr %0, ptr %2, align 8
  %3 = load ptr, ptr %2, align 8
  %4 = getelementptr inbounds nuw %"class.llvm::pointer_union_detail::PointerUnionMembers.138", ptr %3, i32 0, i32 0
  %5 = call noundef i32 @_ZNK4llvm14PointerIntPairIPvLj1EiNS_20pointer_union_detail22PointerUnionUIntTraitsIJPNS_6RecordEPNS_4InitEEEENS_18PointerIntPairInfoIS1_Lj1ES8_EEE6getIntEv(ptr noundef nonnull align 8 dereferenceable(8) %4)
  %6 = sext i32 %5 to i64
  %7 = icmp eq i64 %6, 1
  ret i1 %7
}

; Function Attrs: mustprogress nounwind uwtable
define linkonce_odr hidden noundef ptr @_ZN4llvm8CastInfoIPNS_6RecordENS_12PointerUnionIJS2_PNS_4InitEEEEvE6doCastERS6_(ptr noundef nonnull align 8 dereferenceable(8) %0) #1 comdat align 2 {
  %2 = alloca ptr, align 8
  store ptr %0, ptr %2, align 8
  %3 = load ptr, ptr %2, align 8
  %4 = call noundef ptr @_ZN4llvm24CastInfoPointerUnionImplIJPNS_6RecordEPNS_4InitEEE6doCastIS2_EET_RNS_12PointerUnionIJS2_S4_EEE(ptr noundef nonnull align 8 dereferenceable(8) %3)
  ret ptr %4
}

; Function Attrs: mustprogress nounwind uwtable
define linkonce_odr hidden noundef zeroext i1 @_ZN4llvm8CastInfoIPNS_4InitENS_12PointerUnionIJPNS_6RecordES2_EEEvE10isPossibleERS6_(ptr noundef nonnull align 8 dereferenceable(8) %0) #1 comdat align 2 {
  %2 = alloca ptr, align 8
  store ptr %0, ptr %2, align 8
  %3 = load ptr, ptr %2, align 8
  %4 = call noundef zeroext i1 @_ZN4llvm24CastInfoPointerUnionImplIJPNS_6RecordEPNS_4InitEEE10isPossibleIS4_EEbRNS_12PointerUnionIJS2_S4_EEE(ptr noundef nonnull align 8 dereferenceable(8) %3)
  ret i1 %4
}

; Function Attrs: mustprogress nounwind uwtable
define linkonce_odr hidden noundef ptr @_ZN4llvm28ConstStrippingForwardingCastIPNS_6RecordEKNS_12PointerUnionIJS2_PNS_4InitEEEENS_8CastInfoIS2_S6_vEEE6doCastERS7_(ptr noundef nonnull align 8 dereferenceable(8) %0) #1 comdat align 2 {
  %2 = alloca ptr, align 8
  store ptr %0, ptr %2, align 8
  %3 = load ptr, ptr %2, align 8
  %4 = call noundef ptr @_ZN4llvm8CastInfoIPNS_6RecordENS_12PointerUnionIJS2_PNS_4InitEEEEvE6doCastERS6_(ptr noundef nonnull align 8 dereferenceable(8) %3)
  ret ptr %4
}

; Function Attrs: mustprogress nounwind uwtable
define linkonce_odr hidden noundef zeroext i1 @_ZN4llvm28ConstStrippingForwardingCastIPNS_4InitEKNS_12PointerUnionIJPNS_6RecordES2_EEENS_8CastInfoIS2_S6_vEEE10isPossibleERS7_(ptr noundef nonnull align 8 dereferenceable(8) %0) #1 comdat align 2 {
  %2 = alloca ptr, align 8
  store ptr %0, ptr %2, align 8
  %3 = load ptr, ptr %2, align 8
  %4 = call noundef zeroext i1 @_ZN4llvm8CastInfoIPNS_4InitENS_12PointerUnionIJPNS_6RecordES2_EEEvE10isPossibleERS6_(ptr noundef nonnull align 8 dereferenceable(8) %3)
  ret i1 %4
}

; Function Attrs: mustprogress nounwind uwtable
define linkonce_odr hidden noundef ptr @_ZNK4llvm18IntrusiveRefCntPtrINS_15TreePatternNodeEE3getEv(ptr noundef nonnull align 8 dereferenceable(8) %0) #1 comdat align 2 {
  %2 = alloca ptr, align 8
  store ptr %0, ptr %2, align 8
  %3 = load ptr, ptr %2, align 8
  %4 = getelementptr inbounds nuw %"class.llvm::IntrusiveRefCntPtr", ptr %3, i32 0, i32 0
  %5 = load ptr, ptr %4, align 8
  ret ptr %5
}

; Function Attrs: mustprogress nounwind uwtable
define linkonce_odr hidden noundef nonnull align 8 dereferenceable(8) ptr @_ZNSt6vectorIN4llvm18IntrusiveRefCntPtrINS0_15TreePatternNodeEEESaIS3_EEixEm(ptr noundef nonnull align 8 dereferenceable(24) %0, i64 noundef %1) #1 comdat align 2 {
  %3 = alloca ptr, align 8
  %4 = alloca i64, align 8
  store ptr %0, ptr %3, align 8
  store i64 %1, ptr %4, align 8
  %5 = load ptr, ptr %3, align 8
  %6 = getelementptr inbounds nuw %"struct.std::_Vector_base.150", ptr %5, i32 0, i32 0
  %7 = getelementptr inbounds nuw %"struct.std::_Vector_base<llvm::IntrusiveRefCntPtr<llvm::TreePatternNode>, std::allocator<llvm::IntrusiveRefCntPtr<llvm::TreePatternNode>>>::_Vector_impl_data", ptr %6, i32 0, i32 0
  %8 = load ptr, ptr %7, align 8
  %9 = load i64, ptr %4, align 8
  %10 = getelementptr inbounds %"class.llvm::IntrusiveRefCntPtr", ptr %8, i64 %9
  ret ptr %10
}

; Function Attrs: mustprogress nounwind uwtable
define linkonce_odr hidden noundef i64 @_ZNKSt6vectorIN4llvm18IntrusiveRefCntPtrINS0_15TreePatternNodeEEESaIS3_EE4sizeEv(ptr noundef nonnull align 8 dereferenceable(24) %0) #1 comdat align 2 {
  %2 = alloca ptr, align 8
  store ptr %0, ptr %2, align 8
  %3 = load ptr, ptr %2, align 8
  %4 = getelementptr inbounds nuw %"struct.std::_Vector_base.150", ptr %3, i32 0, i32 0
  %5 = getelementptr inbounds nuw %"struct.std::_Vector_base<llvm::IntrusiveRefCntPtr<llvm::TreePatternNode>, std::allocator<llvm::IntrusiveRefCntPtr<llvm::TreePatternNode>>>::_Vector_impl_data", ptr %4, i32 0, i32 1
  %6 = load ptr, ptr %5, align 8
  %7 = getelementptr inbounds nuw %"struct.std::_Vector_base.150", ptr %3, i32 0, i32 0
  %8 = getelementptr inbounds nuw %"struct.std::_Vector_base<llvm::IntrusiveRefCntPtr<llvm::TreePatternNode>, std::allocator<llvm::IntrusiveRefCntPtr<llvm::TreePatternNode>>>::_Vector_impl_data", ptr %7, i32 0, i32 0
  %9 = load ptr, ptr %8, align 8
  %10 = ptrtoint ptr %6 to i64
  %11 = ptrtoint ptr %9 to i64
  %12 = sub i64 %10, %11
  %13 = sdiv exact i64 %12, 8
  ret i64 %13
}

; Function Attrs: mustprogress nounwind uwtable
define linkonce_odr hidden noundef i64 @_ZNSt11char_traitsIcE6lengthEPKc(ptr noundef %0) #1 comdat align 2 {
  %2 = alloca ptr, align 8
  store ptr %0, ptr %2, align 8
  %3 = load ptr, ptr %2, align 8
  %4 = call i64 @strlen(ptr noundef %3) #13
  ret i64 %4
}

; Function Attrs: mustprogress nounwind uwtable
define linkonce_odr hidden noundef ptr @_ZN4llvm4castIPNS_6RecordENS_12PointerUnionIJS2_PNS_4InitEEEEEEDcRKT0_(ptr noundef nonnull align 8 dereferenceable(8) %0) #1 comdat {
  %2 = alloca ptr, align 8
  store ptr %0, ptr %2, align 8
  %3 = load ptr, ptr %2, align 8
  %4 = call noundef ptr @_ZN4llvm28ConstStrippingForwardingCastIPNS_6RecordEKNS_12PointerUnionIJS2_PNS_4InitEEEENS_8CastInfoIS2_S6_vEEE6doCastERS7_(ptr noundef nonnull align 8 dereferenceable(8) %3)
  ret ptr %4
}

; Function Attrs: mustprogress nounwind uwtable
define linkonce_odr hidden noundef zeroext i1 @_ZN4llvm3isaIPNS_4InitENS_12PointerUnionIJPNS_6RecordES2_EEEEEbRKT0_(ptr noundef nonnull align 8 dereferenceable(8) %0) #1 comdat {
  %2 = alloca ptr, align 8
  store ptr %0, ptr %2, align 8
  %3 = load ptr, ptr %2, align 8
  %4 = call noundef zeroext i1 @_ZN4llvm28ConstStrippingForwardingCastIPNS_4InitEKNS_12PointerUnionIJPNS_6RecordES2_EEENS_8CastInfoIS2_S6_vEEE10isPossibleERS7_(ptr noundef nonnull align 8 dereferenceable(8) %3)
  ret i1 %4
}

; Function Attrs: mustprogress nounwind uwtable
define linkonce_odr hidden noundef nonnull align 8 dereferenceable(184) ptr @_ZN4llvm15TreePatternNode8getChildEj(ptr noundef nonnull align 8 dereferenceable(184) %0, i32 noundef %1) #1 comdat align 2 {
  %3 = alloca ptr, align 8
  %4 = alloca i32, align 4
  store ptr %0, ptr %3, align 8
  store i32 %1, ptr %4, align 4
  %5 = load ptr, ptr %3, align 8
  %6 = getelementptr inbounds nuw %"class.llvm::TreePatternNode", ptr %5, i32 0, i32 8
  %7 = load i32, ptr %4, align 4
  %8 = zext i32 %7 to i64
  %9 = call noundef nonnull align 8 dereferenceable(8) ptr @_ZNSt6vectorIN4llvm18IntrusiveRefCntPtrINS0_15TreePatternNodeEEESaIS3_EEixEm(ptr noundef nonnull align 8 dereferenceable(24) %6, i64 noundef %8) #13
  %10 = call noundef ptr @_ZNK4llvm18IntrusiveRefCntPtrINS_15TreePatternNodeEE3getEv(ptr noundef nonnull align 8 dereferenceable(8) %9)
  ret ptr %10
}

; Function Attrs: mustprogress nounwind uwtable
define linkonce_odr hidden noundef i32 @_ZNK4llvm15TreePatternNode14getNumChildrenEv(ptr noundef nonnull align 8 dereferenceable(184) %0) #1 comdat align 2 {
  %2 = alloca ptr, align 8
  store ptr %0, ptr %2, align 8
  %3 = load ptr, ptr %2, align 8
  %4 = getelementptr inbounds nuw %"class.llvm::TreePatternNode", ptr %3, i32 0, i32 8
  %5 = call noundef i64 @_ZNKSt6vectorIN4llvm18IntrusiveRefCntPtrINS0_15TreePatternNodeEEESaIS3_EE4sizeEv(ptr noundef nonnull align 8 dereferenceable(24) %4) #13
  %6 = trunc i64 %5 to i32
  ret i32 %6
}

; Function Attrs: mustprogress nounwind uwtable
define linkonce_odr hidden void @_ZN4llvm9StringRefC2EPKc(ptr noundef nonnull align 8 dereferenceable(16) %0, ptr noundef %1) unnamed_addr #1 comdat align 2 {
  %3 = alloca ptr, align 8
  %4 = alloca ptr, align 8
  store ptr %0, ptr %3, align 8
  store ptr %1, ptr %4, align 8
  %5 = load ptr, ptr %3, align 8
  %6 = getelementptr inbounds nuw %"class.llvm::StringRef", ptr %5, i32 0, i32 0
  %7 = load ptr, ptr %4, align 8
  store ptr %7, ptr %6, align 8
  %8 = getelementptr inbounds nuw %"class.llvm::StringRef", ptr %5, i32 0, i32 1
  %9 = load ptr, ptr %4, align 8
  %10 = icmp ne ptr %9, null
  br i1 %10, label %11, label %14

11:                                               ; preds = %2
  %12 = load ptr, ptr %4, align 8
  %13 = call noundef i64 @_ZNSt11char_traitsIcE6lengthEPKc(ptr noundef %12)
  br label %15

14:                                               ; preds = %2
  br label %15

15:                                               ; preds = %14, %11
  %16 = phi i64 [ %13, %11 ], [ 0, %14 ]
  store i64 %16, ptr %8, align 8
  ret void
}

; Function Attrs: mustprogress nounwind uwtable
define linkonce_odr hidden noundef ptr @_ZNK4llvm15TreePatternNode11getOperatorEv(ptr noundef nonnull align 8 dereferenceable(184) %0) #1 comdat align 2 {
  %2 = alloca ptr, align 8
  store ptr %0, ptr %2, align 8
  %3 = load ptr, ptr %2, align 8
  %4 = getelementptr inbounds nuw %"class.llvm::TreePatternNode", ptr %3, i32 0, i32 3
  %5 = call noundef ptr @_ZN4llvm4castIPNS_6RecordENS_12PointerUnionIJS2_PNS_4InitEEEEEEDcRKT0_(ptr noundef nonnull align 8 dereferenceable(8) %4)
  ret ptr %5
}

; Function Attrs: mustprogress nounwind uwtable
define linkonce_odr hidden noundef zeroext i1 @_ZNK4llvm15TreePatternNode6isLeafEv(ptr noundef nonnull align 8 dereferenceable(184) %0) #1 comdat align 2 {
  %2 = alloca ptr, align 8
  store ptr %0, ptr %2, align 8
  %3 = load ptr, ptr %2, align 8
  %4 = getelementptr inbounds nuw %"class.llvm::TreePatternNode", ptr %3, i32 0, i32 3
  %5 = call noundef zeroext i1 @_ZN4llvm3isaIPNS_4InitENS_12PointerUnionIJPNS_6RecordES2_EEEEEbRKT0_(ptr noundef nonnull align 8 dereferenceable(8) %4)
  ret i1 %5
}

; Function Attrs: mustprogress nounwind uwtable
define internal noundef i32 @_ZL20getResultPatternSizeRN4llvm15TreePatternNodeERKNS_18CodeGenDAGPatternsE(ptr noundef nonnull align 8 dereferenceable(184) %0, ptr noundef nonnull align 8 dereferenceable(1212) %1) #1 {
  %3 = alloca i32, align 4
  %4 = alloca ptr, align 8
  %5 = alloca ptr, align 8
  %6 = alloca i32, align 4
  %7 = alloca ptr, align 8
  %8 = alloca %"class.llvm::StringRef", align 8
  %9 = alloca %"class.llvm::StringRef", align 8
  %10 = alloca i32, align 4
  %11 = alloca i32, align 4
  store ptr %0, ptr %4, align 8
  store ptr %1, ptr %5, align 8
  %12 = load ptr, ptr %4, align 8
  %13 = call noundef zeroext i1 @_ZNK4llvm15TreePatternNode6isLeafEv(ptr noundef nonnull align 8 dereferenceable(184) %12)
  br i1 %13, label %14, label %15

14:                                               ; preds = %2
  store i32 0, ptr %3, align 4
  br label %55

15:                                               ; preds = %2
  store i32 0, ptr %6, align 4
  %16 = load ptr, ptr %4, align 8
  %17 = call noundef ptr @_ZNK4llvm15TreePatternNode11getOperatorEv(ptr noundef nonnull align 8 dereferenceable(184) %16)
  store ptr %17, ptr %7, align 8
  %18 = load ptr, ptr %7, align 8
  call void @_ZN4llvm9StringRefC2EPKc(ptr noundef nonnull align 8 dereferenceable(16) %8, ptr noundef @.str.14)
  %19 = getelementptr inbounds nuw { ptr, i64 }, ptr %8, i32 0, i32 0
  %20 = load ptr, ptr %19, align 8
  %21 = getelementptr inbounds nuw { ptr, i64 }, ptr %8, i32 0, i32 1
  %22 = load i64, ptr %21, align 8
  %23 = call noundef zeroext i1 @_ZNK4llvm6Record12isSubClassOfENS_9StringRefE(ptr noundef nonnull align 8 dereferenceable(192) %18, ptr %20, i64 %22)
  br i1 %23, label %24, label %35

24:                                               ; preds = %15
  %25 = load ptr, ptr %7, align 8
  call void @_ZN4llvm9StringRefC2EPKc(ptr noundef nonnull align 8 dereferenceable(16) %9, ptr noundef @.str.15)
  %26 = getelementptr inbounds nuw { ptr, i64 }, ptr %9, i32 0, i32 0
  %27 = load ptr, ptr %26, align 8
  %28 = getelementptr inbounds nuw { ptr, i64 }, ptr %9, i32 0, i32 1
  %29 = load i64, ptr %28, align 8
  %30 = call noundef i64 @_ZNK4llvm6Record13getValueAsIntENS_9StringRefE(ptr noundef nonnull align 8 dereferenceable(192) %25, ptr %27, i64 %29)
  %31 = load i32, ptr %6, align 4
  %32 = zext i32 %31 to i64
  %33 = add nsw i64 %32, %30
  %34 = trunc i64 %33 to i32
  store i32 %34, ptr %6, align 4
  br label %35

35:                                               ; preds = %24, %15
  store i32 0, ptr %10, align 4
  %36 = load ptr, ptr %4, align 8
  %37 = call noundef i32 @_ZNK4llvm15TreePatternNode14getNumChildrenEv(ptr noundef nonnull align 8 dereferenceable(184) %36)
  store i32 %37, ptr %11, align 4
  br label %38

38:                                               ; preds = %50, %35
  %39 = load i32, ptr %10, align 4
  %40 = load i32, ptr %11, align 4
  %41 = icmp ne i32 %39, %40
  br i1 %41, label %42, label %53

42:                                               ; preds = %38
  %43 = load ptr, ptr %4, align 8
  %44 = load i32, ptr %10, align 4
  %45 = call noundef nonnull align 8 dereferenceable(184) ptr @_ZN4llvm15TreePatternNode8getChildEj(ptr noundef nonnull align 8 dereferenceable(184) %43, i32 noundef %44)
  %46 = load ptr, ptr %5, align 8
  %47 = call noundef i32 @_ZL20getResultPatternSizeRN4llvm15TreePatternNodeERKNS_18CodeGenDAGPatternsE(ptr noundef nonnull align 8 dereferenceable(184) %45, ptr noundef nonnull align 8 dereferenceable(1212) %46)
  %48 = load i32, ptr %6, align 4
  %49 = add i32 %48, %47
  store i32 %49, ptr %6, align 4
  br label %50

50:                                               ; preds = %42
  %51 = load i32, ptr %10, align 4
  %52 = add i32 %51, 1
  store i32 %52, ptr %10, align 4
  br label %38, !llvm.loop !10

53:                                               ; preds = %38
  %54 = load i32, ptr %6, align 4
  store i32 %54, ptr %3, align 4
  br label %55

55:                                               ; preds = %53, %14
  %56 = load i32, ptr %3, align 4
  ret i32 %56
}