; Function Attrs: mustprogress nounwind uwtable
define internal fastcc noundef i32 @_ZL20getResultPatternSizeRN4llvm15TreePatternNodeERKNS_18CodeGenDAGPatternsE(ptr nocapture noundef nonnull readonly align 8 dereferenceable(184) %0) unnamed_addr #1 {
  %2 = getelementptr inbounds nuw i8, ptr %0, i64 56
  %.0.copyload.i.i.i.i.i.i.i.i = load i64, ptr %2, align 8
  %3 = and i64 %.0.copyload.i.i.i.i.i.i.i.i, 4
  %.not3 = icmp eq i64 %3, 0
  br i1 %.not3, label %4, label %.loopexit

4:                                                ; preds = %1
  %5 = and i64 %.0.copyload.i.i.i.i.i.i.i.i, -8
  %6 = inttoptr i64 %5 to ptr
  %7 = tail call noundef zeroext i1 @_ZNK4llvm6Record12isSubClassOfENS_9StringRefE(ptr noundef nonnull align 8 dereferenceable(192) %6, ptr nonnull @.str.14, i64 11)
  br i1 %7, label %8, label %11

8:                                                ; preds = %4
  %9 = tail call noundef i64 @_ZNK4llvm6Record13getValueAsIntENS_9StringRefE(ptr noundef nonnull align 8 dereferenceable(192) %6, ptr nonnull @.str.15, i64 8) #15
  %10 = trunc i64 %9 to i32
  br label %11

11:                                               ; preds = %8, %4
  %.015 = phi i32 [ %10, %8 ], [ 0, %4 ]
  %12 = getelementptr inbounds nuw i8, ptr %0, i64 152
  %13 = getelementptr inbounds i8, ptr %0, i64 160
  %14 = load ptr, ptr %13, align 8
  %15 = load ptr, ptr %12, align 8
  %16 = ptrtoint ptr %14 to i64
  %17 = ptrtoint ptr %15 to i64
  %18 = sub i64 %16, %17
  %19 = and i64 %18, 34359738360
  %.not4 = icmp eq i64 %19, 0
  br i1 %.not4, label %.loopexit, label %.lr.ph.preheader

.lr.ph.preheader:                                 ; preds = %11
  %20 = lshr exact i64 %18, 3
  %21 = and i64 %20, 4294967295
  br label %.lr.ph

.lr.ph:                                           ; preds = %.lr.ph.preheader, %.lr.ph
  %indvars.iv = phi i64 [ 0, %.lr.ph.preheader ], [ %indvars.iv.next, %.lr.ph ]
  %.15 = phi i32 [ %.015, %.lr.ph.preheader ], [ %26, %.lr.ph ]
  %22 = load ptr, ptr %12, align 8
  %23 = getelementptr inbounds %"class.llvm::IntrusiveRefCntPtr", ptr %22, i64 %indvars.iv
  %24 = load ptr, ptr %23, align 8
  %25 = tail call fastcc noundef i32 @_ZL20getResultPatternSizeRN4llvm15TreePatternNodeERKNS_18CodeGenDAGPatternsE(ptr noundef nonnull align 8 dereferenceable(184) %24)
  %26 = add i32 %25, %.15
  %indvars.iv.next = add nuw nsw i64 %indvars.iv, 1
  %.not = icmp eq i64 %indvars.iv.next, %21
  br i1 %.not, label %.loopexit, label %.lr.ph, !llvm.loop !26

.loopexit:                                        ; preds = %.lr.ph, %11, %1
  %.0 = phi i32 [ 0, %1 ], [ %.015, %11 ], [ %26, %.lr.ph ]
  ret i32 %.0
}